target datalayout = "e-m:e-p270:32:32-p271:32:32-p272:64:64-i64:64-i128:128-f80:128-n8:16:32:64-S128"
target triple = "x86_64-pc-linux-gnu"

@.str.4 = private unnamed_addr constant [1 x i8] zeroinitializer, align 1
@.str.10 = private unnamed_addr constant [6 x i8] c"diff3\00", align 1
@.str.11 = private unnamed_addr constant [7 x i8] c"zdiff3\00", align 1
@.str.12 = private unnamed_addr constant [6 x i8] c"merge\00", align 1
@git_xmerge_style = dso_local global i32 -1, align 4
@.str.13 = private unnamed_addr constant [20 x i8] c"merge.conflictstyle\00", align 1
@.str.14 = private unnamed_addr constant [34 x i8] c"unknown style '%s' given for '%s'\00", align 1
@git_gettext_enabled = external global i32, align 4

; Function Attrs: inlinehint nounwind uwtable
define internal ptr @_(ptr noundef %0) #6 {
  %2 = alloca ptr, align 8
  %3 = alloca ptr, align 8
  store ptr %0, ptr %3, align 8, !tbaa !16
  %4 = load ptr, ptr %3, align 8, !tbaa !16
  %5 = load i8, ptr %4, align 1, !tbaa !30
  %6 = icmp ne i8 %5, 0
  br i1 %6, label %8, label %7

7:                                                ; preds = %1
  store ptr @.str.4, ptr %2, align 8
  br label %16

8:                                                ; preds = %1
  %9 = load i32, ptr @git_gettext_enabled, align 4, !tbaa !25
  %10 = icmp ne i32 %9, 0
  br i1 %10, label %13, label %11

11:                                               ; preds = %8
  %12 = load ptr, ptr %3, align 8, !tbaa !16
  store ptr %12, ptr %2, align 8
  br label %16

13:                                               ; preds = %8
  %14 = load ptr, ptr %3, align 8, !tbaa !16
  %15 = call ptr @dcgettext(ptr noundef null, ptr noundef %14, i32 noundef 5) #9
  store ptr %15, ptr %2, align 8
  br label %16

16:                                               ; preds = %13, %11, %7
  %17 = load ptr, ptr %2, align 8
  ret ptr %17
}

; Function Attrs: nounwind uwtable
define dso_local i32 @parse_conflict_style_name(ptr noundef %0) #0 {
  %2 = alloca i32, align 4
  %3 = alloca ptr, align 8
  store ptr %0, ptr %3, align 8, !tbaa !16
  %4 = load ptr, ptr %3, align 8, !tbaa !16
  %5 = call i32 @strcmp(ptr noundef %4, ptr noundef @.str.10) #10
  %6 = icmp ne i32 %5, 0
  br i1 %6, label %8, label %7

7:                                                ; preds = %1
  store i32 1, ptr %2, align 4
  br label %19

8:                                                ; preds = %1
  %9 = load ptr, ptr %3, align 8, !tbaa !16
  %10 = call i32 @strcmp(ptr noundef %9, ptr noundef @.str.11) #10
  %11 = icmp ne i32 %10, 0
  br i1 %11, label %13, label %12

12:                                               ; preds = %8
  store i32 2, ptr %2, align 4
  br label %19

13:                                               ; preds = %8
  %14 = load ptr, ptr %3, align 8, !tbaa !16
  %15 = call i32 @strcmp(ptr noundef %14, ptr noundef @.str.12) #10
  %16 = icmp ne i32 %15, 0
  br i1 %16, label %18, label %17

17:                                               ; preds = %13
  store i32 0, ptr %2, align 4
  br label %19

18:                                               ; preds = %13
  store i32 -1, ptr %2, align 4
  br label %19

19:                                               ; preds = %18, %17, %12, %7
  %20 = load i32, ptr %2, align 4
  ret i32 %20
}

; Function Attrs: inlinehint nounwind uwtable
define internal i32 @const_error() #6 {
  ret i32 -1
}

; Function Attrs: nounwind uwtable
define dso_local i32 @git_xmerge_config(ptr noundef %0, ptr noundef %1, ptr noundef %2, ptr noundef %3) #0 {
  %5 = alloca i32, align 4
  %6 = alloca ptr, align 8
  %7 = alloca ptr, align 8
  %8 = alloca ptr, align 8
  %9 = alloca ptr, align 8
  store ptr %0, ptr %6, align 8, !tbaa !16
  store ptr %1, ptr %7, align 8, !tbaa !16
  store ptr %2, ptr %8, align 8, !tbaa !82
  store ptr %3, ptr %9, align 8, !tbaa !32
  %10 = load ptr, ptr %6, align 8, !tbaa !16
  %11 = call i32 @strcmp(ptr noundef %10, ptr noundef @.str.13) #10
  %12 = icmp ne i32 %11, 0
  br i1 %12, label %32, label %13

13:                                               ; preds = %4
  %14 = load ptr, ptr %7, align 8, !tbaa !16
  %15 = icmp ne ptr %14, null
  br i1 %15, label %20, label %16

16:                                               ; preds = %13
  %17 = load ptr, ptr %6, align 8, !tbaa !16
  %18 = call i32 @config_error_nonbool(ptr noundef %17)
  %19 = call i32 @const_error()
  store i32 %19, ptr %5, align 4
  br label %38

20:                                               ; preds = %13
  %21 = load ptr, ptr %7, align 8, !tbaa !16
  %22 = call i32 @parse_conflict_style_name(ptr noundef %21)
  store i32 %22, ptr @git_xmerge_style, align 4, !tbaa !25
  %23 = load i32, ptr @git_xmerge_style, align 4, !tbaa !25
  %24 = icmp eq i32 %23, -1
  br i1 %24, label %25, label %31

25:                                               ; preds = %20
  %26 = call ptr @_(ptr noundef @.str.14)
  %27 = load ptr, ptr %7, align 8, !tbaa !16
  %28 = load ptr, ptr %6, align 8, !tbaa !16
  %29 = call i32 (ptr, ...) @error(ptr noundef %26, ptr noundef %27, ptr noundef %28)
  %30 = call i32 @const_error()
  store i32 %30, ptr %5, align 4
  br label %38

31:                                               ; preds = %20
  store i32 0, ptr %5, align 4
  br label %38

32:                                               ; preds = %4
  %33 = load ptr, ptr %6, align 8, !tbaa !16
  %34 = load ptr, ptr %7, align 8, !tbaa !16
  %35 = load ptr, ptr %8, align 8, !tbaa !82
  %36 = load ptr, ptr %9, align 8, !tbaa !32
  %37 = call i32 @git_default_config(ptr noundef %33, ptr noundef %34, ptr noundef %35, ptr noundef %36)
  store i32 %37, ptr %5, align 4
  br label %38

38:                                               ; preds = %32, %31, %25, %16
  %39 = load i32, ptr %5, align 4
  ret i32 %39
}