; Function Attrs: nounwind uwtable
define dso_local i32 @git_xmerge_config(ptr noundef %0, ptr noundef %1, ptr noundef %2, ptr noundef %3) local_unnamed_addr #0 {
  %5 = tail call i32 @strcmp(ptr noundef nonnull dereferenceable(1) %0, ptr noundef nonnull dereferenceable(20) @.str.13) #15
  %.not = icmp eq i32 %5, 0
  br i1 %.not, label %6, label %19

6:                                                ; preds = %4
  %.not11 = icmp eq ptr %1, null
  br i1 %.not11, label %7, label %9

7:                                                ; preds = %6
  %8 = tail call i32 @config_error_nonbool(ptr noundef nonnull %0) #13
  br label %21

9:                                                ; preds = %6
  %10 = tail call i32 @strcmp(ptr noundef nonnull readonly dereferenceable(1) %1, ptr noundef nonnull dereferenceable(6) @.str.10) #15
  %.not.i = icmp eq i32 %10, 0
  br i1 %.not.i, label %parse_conflict_style_name.exit.thread, label %11

11:                                               ; preds = %9
  %12 = tail call i32 @strcmp(ptr noundef nonnull readonly dereferenceable(1) %1, ptr noundef nonnull dereferenceable(7) @.str.11) #15
  %.not3.i = icmp eq i32 %12, 0
  br i1 %.not3.i, label %parse_conflict_style_name.exit.thread, label %parse_conflict_style_name.exit

parse_conflict_style_name.exit.thread:            ; preds = %9, %11
  %.0.i.ph = phi i32 [ 2, %11 ], [ 1, %9 ]
  store i32 %.0.i.ph, ptr @git_xmerge_style, align 4, !tbaa !64
  br label %21

parse_conflict_style_name.exit:                   ; preds = %11
  %13 = tail call i32 @strcmp(ptr noundef nonnull readonly dereferenceable(1) %1, ptr noundef nonnull dereferenceable(6) @.str.12) #15
  %.not4.i = icmp ne i32 %13, 0
  %..i = sext i1 %.not4.i to i32
  store i32 %..i, ptr @git_xmerge_style, align 4, !tbaa !64
  br i1 %.not4.i, label %14, label %21

14:                                               ; preds = %parse_conflict_style_name.exit
  %15 = load i32, ptr @git_gettext_enabled, align 4, !tbaa !64
  %.not.i12 = icmp eq i32 %15, 0
  br i1 %.not.i12, label %_.exit, label %16

16:                                               ; preds = %14
  %17 = tail call ptr @dcgettext(ptr noundef null, ptr noundef nonnull @.str.14, i32 noundef 5) #13
  br label %_.exit

_.exit:                                           ; preds = %14, %16
  %.0.i13 = phi ptr [ %17, %16 ], [ @.str.14, %14 ]
  %18 = tail call i32 (ptr, ...) @error(ptr noundef %.0.i13, ptr noundef nonnull %1, ptr noundef nonnull %0) #13
  br label %21

19:                                               ; preds = %4
  %20 = tail call i32 @git_default_config(ptr noundef nonnull %0, ptr noundef %1, ptr noundef %2, ptr noundef %3) #13
  br label %21

21:                                               ; preds = %parse_conflict_style_name.exit.thread, %parse_conflict_style_name.exit, %19, %_.exit, %7
  %.0 = phi i32 [ %20, %19 ], [ -1, %_.exit ], [ -1, %7 ], [ 0, %parse_conflict_style_name.exit ], [ 0, %parse_conflict_style_name.exit.thread ]
  ret i32 %.0
}